target datalayout = "e-m:e-p270:32:32-p271:32:32-p272:64:64-i64:64-i128:128-f80:128-n8:16:32:64-S128"
target triple = "x86_64-pc-linux-gnu"

%"class.net::uint128" = type { i64, i64 }

; Function Attrs: inlinehint mustprogress nounwind uwtable
define linkonce_odr noundef nonnull align 8 dereferenceable(16) ptr @_ZN3net7uint128pLERKS0_(ptr noundef nonnull align 8 dereferenceable(16) %0, ptr noundef nonnull align 8 dereferenceable(16) %1) #1 comdat align 2 {
  %3 = alloca ptr, align 8
  %4 = alloca ptr, align 8
  %5 = alloca i64, align 8
  store ptr %0, ptr %3, align 8, !tbaa !33
  store ptr %1, ptr %4, align 8, !tbaa !33
  %6 = load ptr, ptr %3, align 8
  %7 = load ptr, ptr %4, align 8, !tbaa !33
  %8 = getelementptr inbounds nuw %"class.net::uint128", ptr %7, i32 0, i32 1
  %9 = load i64, ptr %8, align 8, !tbaa !37
  %10 = getelementptr inbounds nuw %"class.net::uint128", ptr %6, i32 0, i32 1
  %11 = load i64, ptr %10, align 8, !tbaa !37
  %12 = add i64 %11, %9
  store i64 %12, ptr %10, align 8, !tbaa !37
  call void @llvm.lifetime.start.p0(i64 8, ptr %5) #10
  %13 = getelementptr inbounds nuw %"class.net::uint128", ptr %6, i32 0, i32 0
  %14 = load i64, ptr %13, align 8, !tbaa !35
  %15 = load ptr, ptr %4, align 8, !tbaa !33
  %16 = getelementptr inbounds nuw %"class.net::uint128", ptr %15, i32 0, i32 0
  %17 = load i64, ptr %16, align 8, !tbaa !35
  %18 = add i64 %14, %17
  store i64 %18, ptr %5, align 8, !tbaa !28
  %19 = load i64, ptr %5, align 8, !tbaa !28
  %20 = getelementptr inbounds nuw %"class.net::uint128", ptr %6, i32 0, i32 0
  %21 = load i64, ptr %20, align 8, !tbaa !35
  %22 = icmp ult i64 %19, %21
  br i1 %22, label %23, label %27

23:                                               ; preds = %2
  %24 = getelementptr inbounds nuw %"class.net::uint128", ptr %6, i32 0, i32 1
  %25 = load i64, ptr %24, align 8, !tbaa !37
  %26 = add i64 %25, 1
  store i64 %26, ptr %24, align 8, !tbaa !37
  br label %27

27:                                               ; preds = %23, %2
  %28 = load i64, ptr %5, align 8, !tbaa !28
  %29 = getelementptr inbounds nuw %"class.net::uint128", ptr %6, i32 0, i32 0
  store i64 %28, ptr %29, align 8, !tbaa !35
  call void @llvm.lifetime.end.p0(i64 8, ptr %5) #10
  ret ptr %6
}

; Function Attrs: inlinehint mustprogress nounwind uwtable
define linkonce_odr void @_ZN3net7uint128C2Em(ptr noundef nonnull align 8 dereferenceable(16) %0, i64 noundef %1) unnamed_addr #1 comdat align 2 {
  %3 = alloca ptr, align 8
  %4 = alloca i64, align 8
  store ptr %0, ptr %3, align 8, !tbaa !33
  store i64 %1, ptr %4, align 8, !tbaa !28
  %5 = load ptr, ptr %3, align 8
  %6 = getelementptr inbounds nuw %"class.net::uint128", ptr %5, i32 0, i32 0
  %7 = load i64, ptr %4, align 8, !tbaa !28
  store i64 %7, ptr %6, align 8, !tbaa !35
  %8 = getelementptr inbounds nuw %"class.net::uint128", ptr %5, i32 0, i32 1
  store i64 0, ptr %8, align 8, !tbaa !37
  ret void
}

; Function Attrs: inlinehint mustprogress nounwind uwtable
define linkonce_odr noundef nonnull align 8 dereferenceable(16) ptr @_ZN3net7uint128lSEi(ptr noundef nonnull align 8 dereferenceable(16) %0, i32 noundef %1) #1 comdat align 2 {
  %3 = alloca ptr, align 8
  %4 = alloca i32, align 4
  store ptr %0, ptr %3, align 8, !tbaa !33
  store i32 %1, ptr %4, align 4, !tbaa !40
  %5 = load ptr, ptr %3, align 8
  %6 = load i32, ptr %4, align 4, !tbaa !40
  %7 = icmp slt i32 %6, 64
  br i1 %7, label %8, label %32

8:                                                ; preds = %2
  %9 = load i32, ptr %4, align 4, !tbaa !40
  %10 = icmp ne i32 %9, 0
  br i1 %10, label %11, label %31

11:                                               ; preds = %8
  %12 = getelementptr inbounds nuw %"class.net::uint128", ptr %5, i32 0, i32 1
  %13 = load i64, ptr %12, align 8, !tbaa !37
  %14 = load i32, ptr %4, align 4, !tbaa !40
  %15 = zext i32 %14 to i64
  %16 = shl i64 %13, %15
  %17 = getelementptr inbounds nuw %"class.net::uint128", ptr %5, i32 0, i32 0
  %18 = load i64, ptr %17, align 8, !tbaa !35
  %19 = load i32, ptr %4, align 4, !tbaa !40
  %20 = sub nsw i32 64, %19
  %21 = zext i32 %20 to i64
  %22 = lshr i64 %18, %21
  %23 = or i64 %16, %22
  %24 = getelementptr inbounds nuw %"class.net::uint128", ptr %5, i32 0, i32 1
  store i64 %23, ptr %24, align 8, !tbaa !37
  %25 = getelementptr inbounds nuw %"class.net::uint128", ptr %5, i32 0, i32 0
  %26 = load i64, ptr %25, align 8, !tbaa !35
  %27 = load i32, ptr %4, align 4, !tbaa !40
  %28 = zext i32 %27 to i64
  %29 = shl i64 %26, %28
  %30 = getelementptr inbounds nuw %"class.net::uint128", ptr %5, i32 0, i32 0
  store i64 %29, ptr %30, align 8, !tbaa !35
  br label %31

31:                                               ; preds = %11, %8
  br label %48

32:                                               ; preds = %2
  %33 = load i32, ptr %4, align 4, !tbaa !40
  %34 = icmp slt i32 %33, 128
  br i1 %34, label %35, label %44

35:                                               ; preds = %32
  %36 = getelementptr inbounds nuw %"class.net::uint128", ptr %5, i32 0, i32 0
  %37 = load i64, ptr %36, align 8, !tbaa !35
  %38 = load i32, ptr %4, align 4, !tbaa !40
  %39 = sub nsw i32 %38, 64
  %40 = zext i32 %39 to i64
  %41 = shl i64 %37, %40
  %42 = getelementptr inbounds nuw %"class.net::uint128", ptr %5, i32 0, i32 1
  store i64 %41, ptr %42, align 8, !tbaa !37
  %43 = getelementptr inbounds nuw %"class.net::uint128", ptr %5, i32 0, i32 0
  store i64 0, ptr %43, align 8, !tbaa !35
  br label %47

44:                                               ; preds = %32
  %45 = getelementptr inbounds nuw %"class.net::uint128", ptr %5, i32 0, i32 1
  store i64 0, ptr %45, align 8, !tbaa !37
  %46 = getelementptr inbounds nuw %"class.net::uint128", ptr %5, i32 0, i32 0
  store i64 0, ptr %46, align 8, !tbaa !35
  br label %47

47:                                               ; preds = %44, %35
  br label %48

48:                                               ; preds = %47, %31
  ret ptr %5
}

; Function Attrs: inlinehint mustprogress nounwind uwtable
define linkonce_odr noundef nonnull align 8 dereferenceable(16) ptr @_ZN3net7uint128aSERKS0_(ptr noundef nonnull align 8 dereferenceable(16) %0, ptr noundef nonnull align 8 dereferenceable(16) %1) #1 comdat align 2 {
  %3 = alloca ptr, align 8
  %4 = alloca ptr, align 8
  store ptr %0, ptr %3, align 8, !tbaa !33
  store ptr %1, ptr %4, align 8, !tbaa !33
  %5 = load ptr, ptr %3, align 8
  %6 = load ptr, ptr %4, align 8, !tbaa !33
  %7 = getelementptr inbounds nuw %"class.net::uint128", ptr %6, i32 0, i32 0
  %8 = load i64, ptr %7, align 8, !tbaa !35
  %9 = getelementptr inbounds nuw %"class.net::uint128", ptr %5, i32 0, i32 0
  store i64 %8, ptr %9, align 8, !tbaa !35
  %10 = load ptr, ptr %4, align 8, !tbaa !33
  %11 = getelementptr inbounds nuw %"class.net::uint128", ptr %10, i32 0, i32 1
  %12 = load i64, ptr %11, align 8, !tbaa !37
  %13 = getelementptr inbounds nuw %"class.net::uint128", ptr %5, i32 0, i32 1
  store i64 %12, ptr %13, align 8, !tbaa !37
  ret ptr %5
}

; Function Attrs: inlinehint mustprogress nounwind uwtable
define linkonce_odr void @_ZN3net7uint128C2Ej(ptr noundef nonnull align 8 dereferenceable(16) %0, i32 noundef %1) unnamed_addr #1 comdat align 2 {
  %3 = alloca ptr, align 8
  %4 = alloca i32, align 4
  store ptr %0, ptr %3, align 8, !tbaa !33
  store i32 %1, ptr %4, align 4, !tbaa !40
  %5 = load ptr, ptr %3, align 8
  %6 = getelementptr inbounds nuw %"class.net::uint128", ptr %5, i32 0, i32 0
  %7 = load i32, ptr %4, align 4, !tbaa !40
  %8 = zext i32 %7 to i64
  store i64 %8, ptr %6, align 8, !tbaa !35
  %9 = getelementptr inbounds nuw %"class.net::uint128", ptr %5, i32 0, i32 1
  store i64 0, ptr %9, align 8, !tbaa !37
  ret void
}

; Function Attrs: mustprogress uwtable
define noundef zeroext i1 @_ZN3net13NullDecrypter8ReadHashEPNS_14QuicDataReaderEPNS_7uint128E(ptr noundef nonnull align 8 dereferenceable(8) %0, ptr noundef %1, ptr noundef %2) #2 align 2 {
  %4 = alloca i1, align 1
  %5 = alloca ptr, align 8
  %6 = alloca ptr, align 8
  %7 = alloca ptr, align 8
  %8 = alloca i64, align 8
  %9 = alloca i32, align 4
  %10 = alloca i32, align 4
  %11 = alloca %"class.net::uint128", align 8
  %12 = alloca %"class.net::uint128", align 8
  store ptr %0, ptr %5, align 8, !tbaa !3
  store ptr %1, ptr %6, align 8, !tbaa !38
  store ptr %2, ptr %7, align 8, !tbaa !33
  call void @llvm.lifetime.start.p0(i64 8, ptr %8) #10
  call void @llvm.lifetime.start.p0(i64 4, ptr %9) #10
  %13 = load ptr, ptr %6, align 8, !tbaa !38
  %14 = call noundef zeroext i1 @_ZN3net14QuicDataReader10ReadUInt64EPm(ptr noundef nonnull align 8 dereferenceable(24) %13, ptr noundef %8)
  br i1 %14, label %15, label %18

15:                                               ; preds = %3
  %16 = load ptr, ptr %6, align 8, !tbaa !38
  %17 = call noundef zeroext i1 @_ZN3net14QuicDataReader10ReadUInt32EPj(ptr noundef nonnull align 8 dereferenceable(24) %16, ptr noundef %9)
  br i1 %17, label %19, label %18

18:                                               ; preds = %15, %3
  store i1 false, ptr %4, align 1
  store i32 1, ptr %10, align 4
  br label %28

19:                                               ; preds = %15
  call void @llvm.lifetime.start.p0(i64 16, ptr %11) #10
  %20 = load i32, ptr %9, align 4, !tbaa !40
  call void @_ZN3net7uint128C2Ej(ptr noundef nonnull align 8 dereferenceable(16) %11, i32 noundef %20)
  %21 = load ptr, ptr %7, align 8, !tbaa !33
  %22 = call noundef nonnull align 8 dereferenceable(16) ptr @_ZN3net7uint128aSERKS0_(ptr noundef nonnull align 8 dereferenceable(16) %21, ptr noundef nonnull align 8 dereferenceable(16) %11)
  call void @llvm.lifetime.end.p0(i64 16, ptr %11) #10
  %23 = load ptr, ptr %7, align 8, !tbaa !33
  %24 = call noundef nonnull align 8 dereferenceable(16) ptr @_ZN3net7uint128lSEi(ptr noundef nonnull align 8 dereferenceable(16) %23, i32 noundef 64)
  call void @llvm.lifetime.start.p0(i64 16, ptr %12) #10
  %25 = load i64, ptr %8, align 8, !tbaa !28
  call void @_ZN3net7uint128C2Em(ptr noundef nonnull align 8 dereferenceable(16) %12, i64 noundef %25)
  %26 = load ptr, ptr %7, align 8, !tbaa !33
  %27 = call noundef nonnull align 8 dereferenceable(16) ptr @_ZN3net7uint128pLERKS0_(ptr noundef nonnull align 8 dereferenceable(16) %26, ptr noundef nonnull align 8 dereferenceable(16) %12)
  call void @llvm.lifetime.end.p0(i64 16, ptr %12) #10
  store i1 true, ptr %4, align 1
  store i32 1, ptr %10, align 4
  br label %28

28:                                               ; preds = %19, %18
  call void @llvm.lifetime.end.p0(i64 4, ptr %9) #10
  call void @llvm.lifetime.end.p0(i64 8, ptr %8) #10
  %29 = load i1, ptr %4, align 1
  ret i1 %29
}