; Function Attrs: mustprogress uwtable
define noundef zeroext i1 @_ZN3net13NullDecrypter8ReadHashEPNS_14QuicDataReaderEPNS_7uint128E(ptr noundef nonnull readnone align 8 captures(none) dereferenceable(8) %0, ptr noundef nonnull %1, ptr noundef writeonly captures(none) %2) local_unnamed_addr #2 align 2 {
  %4 = alloca i64, align 8
  %5 = alloca i32, align 4
  call void @llvm.lifetime.start.p0(i64 8, ptr nonnull %4) #9
  call void @llvm.lifetime.start.p0(i64 4, ptr nonnull %5) #9
  %6 = call noundef zeroext i1 @_ZN3net14QuicDataReader10ReadUInt64EPm(ptr noundef nonnull align 8 dereferenceable(24) %1, ptr noundef nonnull %4)
  br i1 %6, label %7, label %13

7:                                                ; preds = %3
  %8 = call noundef zeroext i1 @_ZN3net14QuicDataReader10ReadUInt32EPj(ptr noundef nonnull align 8 dereferenceable(24) %1, ptr noundef nonnull %5)
  br i1 %8, label %_ZN3net7uint128pLERKS0_.exit, label %13

_ZN3net7uint128pLERKS0_.exit:                     ; preds = %7
  %9 = load i32, ptr %5, align 4, !tbaa !13
  %10 = zext i32 %9 to i64
  %11 = getelementptr inbounds nuw i8, ptr %2, i64 8
  %12 = load i64, ptr %4, align 8, !tbaa !15
  store i64 %10, ptr %11, align 8, !tbaa !16
  store i64 %12, ptr %2, align 8, !tbaa !21
  br label %13

13:                                               ; preds = %3, %7, %_ZN3net7uint128pLERKS0_.exit
  %.0 = phi i1 [ true, %_ZN3net7uint128pLERKS0_.exit ], [ false, %7 ], [ false, %3 ]
  call void @llvm.lifetime.end.p0(i64 4, ptr nonnull %5) #9
  call void @llvm.lifetime.end.p0(i64 8, ptr nonnull %4) #9
  ret i1 %.0
}